; ModuleID = 'source-C-CXX/52/1715.c'
source_filename = "source-C-CXX/52/1715.c"
target datalayout = "e-m:e-p270:32:32-p271:32:32-p272:64:64-i64:64-f80:128-n8:16:32:64-S128"
target triple = "x86_64-pc-linux-gnu"

@.str = private unnamed_addr constant [3 x i8] c"%d\00", align 1
@.str.1 = private unnamed_addr constant [4 x i8] c",%d\00", align 1

; Function Attrs: nofree nounwind sspstrong uwtable
define dso_local i32 @main() local_unnamed_addr #0 {
  %1 = alloca [500 x i32], align 16
  %2 = alloca [500 x i32], align 16
  %3 = alloca i32, align 4
  %4 = bitcast [500 x i32]* %1 to i8*
  call void @llvm.lifetime.start.p0i8(i64 2000, i8* nonnull %4) #3
  %5 = bitcast [500 x i32]* %2 to i8*
  call void @llvm.lifetime.start.p0i8(i64 2000, i8* nonnull %5) #3
  %6 = bitcast i32* %3 to i8*
  call void @llvm.lifetime.start.p0i8(i64 4, i8* nonnull %6) #3
  %7 = call i32 (i8*, ...) @__isoc99_scanf(i8* getelementptr inbounds ([3 x i8], [3 x i8]* @.str, i64 0, i64 0), i32* nonnull %3)
  %8 = getelementptr inbounds [500 x i32], [500 x i32]* %1, i64 0, i64 0
  %9 = call i32 (i8*, ...) @__isoc99_scanf(i8* getelementptr inbounds ([3 x i8], [3 x i8]* @.str, i64 0, i64 0), i32* nonnull %8)
  %10 = load i32, i32* %8, align 16, !tbaa !5
  %11 = getelementptr inbounds [500 x i32], [500 x i32]* %2, i64 0, i64 0
  store i32 %10, i32* %11, align 16, !tbaa !5
  %12 = load i32, i32* %3, align 4, !tbaa !5
  %13 = icmp slt i32 %12, 1
  br i1 %13, label %14, label %16

14:                                               ; preds = %0
  %15 = call i32 (i8*, ...) @printf(i8* nonnull dereferenceable(1) getelementptr inbounds ([3 x i8], [3 x i8]* @.str, i64 0, i64 0), i32 %10)
  br label %57

16:                                               ; preds = %0, %37
  %17 = phi i64 [ %39, %37 ], [ 1, %0 ]
  %18 = phi i32 [ %38, %37 ], [ 1, %0 ]
  %19 = getelementptr inbounds [500 x i32], [500 x i32]* %1, i64 0, i64 %17
  %20 = call i32 (i8*, ...) @__isoc99_scanf(i8* getelementptr inbounds ([3 x i8], [3 x i8]* @.str, i64 0, i64 0), i32* nonnull %19)
  %21 = icmp sgt i32 %18, 0
  %22 = load i32, i32* %19, align 4, !tbaa !5
  br i1 %21, label %23, label %33

23:                                               ; preds = %16
  %24 = zext i32 %18 to i64
  br label %27

25:                                               ; preds = %27
  %26 = icmp eq i64 %32, %24
  br i1 %26, label %33, label %27, !llvm.loop !9

27:                                               ; preds = %23, %25
  %28 = phi i64 [ 0, %23 ], [ %32, %25 ]
  %29 = getelementptr inbounds [500 x i32], [500 x i32]* %2, i64 0, i64 %28
  %30 = load i32, i32* %29, align 4, !tbaa !5
  %31 = icmp eq i32 %22, %30
  %32 = add nuw nsw i64 %28, 1
  br i1 %31, label %37, label %25

33:                                               ; preds = %25, %16
  %34 = sext i32 %18 to i64
  %35 = getelementptr inbounds [500 x i32], [500 x i32]* %2, i64 0, i64 %34
  store i32 %22, i32* %35, align 4, !tbaa !5
  %36 = add nsw i32 %18, 1
  br label %37

37:                                               ; preds = %27, %33
  %38 = phi i32 [ %36, %33 ], [ %18, %27 ]
  %39 = add nuw nsw i64 %17, 1
  %40 = load i32, i32* %3, align 4, !tbaa !5
  %41 = sext i32 %40 to i64
  %42 = icmp slt i64 %17, %41
  br i1 %42, label %16, label %43, !llvm.loop !11

43:                                               ; preds = %37
  %44 = load i32, i32* %11, align 16, !tbaa !5
  %45 = call i32 (i8*, ...) @printf(i8* nonnull dereferenceable(1) getelementptr inbounds ([3 x i8], [3 x i8]* @.str, i64 0, i64 0), i32 %44)
  %46 = icmp sgt i32 %38, 2
  br i1 %46, label %47, label %57

47:                                               ; preds = %43
  %48 = add nsw i32 %38, -1
  %49 = zext i32 %48 to i64
  br label %50

50:                                               ; preds = %47, %50
  %51 = phi i64 [ 1, %47 ], [ %55, %50 ]
  %52 = getelementptr inbounds [500 x i32], [500 x i32]* %2, i64 0, i64 %51
  %53 = load i32, i32* %52, align 4, !tbaa !5
  %54 = call i32 (i8*, ...) @printf(i8* nonnull dereferenceable(1) getelementptr inbounds ([4 x i8], [4 x i8]* @.str.1, i64 0, i64 0), i32 %53)
  %55 = add nuw nsw i64 %51, 1
  %56 = icmp eq i64 %55, %49
  br i1 %56, label %57, label %50, !llvm.loop !12

57:                                               ; preds = %50, %14, %43
  call void @llvm.lifetime.end.p0i8(i64 4, i8* nonnull %6) #3
  call void @llvm.lifetime.end.p0i8(i64 2000, i8* nonnull %5) #3
  call void @llvm.lifetime.end.p0i8(i64 2000, i8* nonnull %4) #3
  ret i32 0
}

; Function Attrs: argmemonly mustprogress nofree nosync nounwind willreturn
declare void @llvm.lifetime.start.p0i8(i64 immarg, i8* nocapture) #1

; Function Attrs: nofree nounwind
declare noundef i32 @__isoc99_scanf(i8* nocapture noundef readonly, ...) local_unnamed_addr #2

; Function Attrs: nofree nounwind
declare noundef i32 @printf(i8* nocapture noundef readonly, ...) local_unnamed_addr #2

; Function Attrs: argmemonly mustprogress nofree nosync nounwind willreturn
declare void @llvm.lifetime.end.p0i8(i64 immarg, i8* nocapture) #1


!llvm.module.flags = !{!0, !1, !2, !3}
!llvm.ident = !{!4}

!0 = !{i32 1, !"wchar_size", i32 4}
!1 = !{i32 7, !"PIC Level", i32 2}
!2 = !{i32 7, !"PIE Level", i32 2}
!3 = !{i32 7, !"uwtable", i32 1}
!4 = !{!"clang version 13.0.0"}
!5 = !{!6, !6, i64 0}
!6 = !{!"int", !7, i64 0}
!7 = !{!"omnipotent char", !8, i64 0}
!8 = !{!"Simple C/C++ TBAA"}
!9 = distinct !{!9, !10}
!10 = !{!"llvm.loop.mustprogress"}
!11 = distinct !{!11, !10}
!12 = distinct !{!12, !10}
